target datalayout = "e-m:e-p270:32:32-p271:32:32-p272:64:64-i64:64-i128:128-f80:128-n8:16:32:64-S128"
target triple = "x86_64-pc-linux-gnu"

%struct.diff_options = type { ptr, ptr, i32, i32, ptr, i32, ptr, i64, i64, ptr, ptr, ptr, ptr, %struct.diff_flags, i32, i32, i32, i32, i32, i32, i32, i32, i32, i32, i32, i32, i32, i32, i32, i32, i32, i32, i32, i32, i32, i32, ptr, i32, ptr, i32, i32, ptr, i64, i64, i32, i32, i32, i32, ptr, i32, i32, ptr, i32, i32, ptr, ptr, i32, [3 x i8], %struct.pathspec, ptr, ptr, ptr, ptr, ptr, ptr, ptr, ptr, i32, ptr, i32, i32, ptr, ptr, i32 }
%struct.diff_flags = type { i32, i32, i32, i32, i32, i32, i32, i32, i32, i32, i32, i32, i32, i32, i32, i32, i32, i32, i32, i32, i32, i32, i32, i32, i32, i32, i32, i32, i32, i32, i32, i32, i32, i32, i32 }
%struct.pathspec = type { i32, i8, i32, i32, ptr }
%struct.s_mmfile = type { ptr, i64 }
%struct.diff_filepair = type { ptr, ptr, i16, i8, i8 }
%struct.diff_filespec = type { %struct.object_id, ptr, ptr, ptr, i64, i32, i32, i16, i16, ptr }
%struct.object_id = type { [32 x i8], i32 }

; Function Attrs: nounwind uwtable
define internal i32 @pickaxe_match(ptr noundef %0, ptr noundef %1, ptr noundef %2, ptr noundef %3, ptr noundef %4) #0 {
  %6 = alloca i32, align 4
  %7 = alloca ptr, align 8
  %8 = alloca ptr, align 8
  %9 = alloca ptr, align 8
  %10 = alloca ptr, align 8
  %11 = alloca ptr, align 8
  %12 = alloca ptr, align 8
  %13 = alloca ptr, align 8
  %14 = alloca %struct.s_mmfile, align 8
  %15 = alloca %struct.s_mmfile, align 8
  %16 = alloca i32, align 4
  %17 = alloca i32, align 4
  store ptr %0, ptr %7, align 8, !tbaa !52
  store ptr %1, ptr %8, align 8, !tbaa !4
  store ptr %2, ptr %9, align 8, !tbaa !27
  store ptr %3, ptr %10, align 8, !tbaa !29
  store ptr %4, ptr %11, align 8, !tbaa !32
  call void @llvm.lifetime.start.p0(i64 8, ptr %12) #9
  store ptr null, ptr %12, align 8, !tbaa !71
  call void @llvm.lifetime.start.p0(i64 8, ptr %13) #9
  store ptr null, ptr %13, align 8, !tbaa !71
  call void @llvm.lifetime.start.p0(i64 16, ptr %14) #9
  call void @llvm.lifetime.start.p0(i64 16, ptr %15) #9
  call void @llvm.lifetime.start.p0(i64 4, ptr %16) #9
  %18 = load ptr, ptr %7, align 8, !tbaa !52
  %19 = getelementptr inbounds nuw %struct.diff_filepair, ptr %18, i32 0, i32 0
  %20 = load ptr, ptr %19, align 8, !tbaa !73
  %21 = getelementptr inbounds nuw %struct.diff_filespec, ptr %20, i32 0, i32 7
  %22 = load i16, ptr %21, align 8, !tbaa !77
  %23 = zext i16 %22 to i32
  %24 = icmp ne i32 %23, 0
  br i1 %24, label %34, label %25

25:                                               ; preds = %5
  %26 = load ptr, ptr %7, align 8, !tbaa !52
  %27 = getelementptr inbounds nuw %struct.diff_filepair, ptr %26, i32 0, i32 1
  %28 = load ptr, ptr %27, align 8, !tbaa !80
  %29 = getelementptr inbounds nuw %struct.diff_filespec, ptr %28, i32 0, i32 7
  %30 = load i16, ptr %29, align 8, !tbaa !77
  %31 = zext i16 %30 to i32
  %32 = icmp ne i32 %31, 0
  br i1 %32, label %34, label %33

33:                                               ; preds = %25
  store i32 0, ptr %6, align 4
  store i32 1, ptr %17, align 4
  br label %192

34:                                               ; preds = %25, %5
  %35 = load ptr, ptr %8, align 8, !tbaa !4
  %36 = getelementptr inbounds nuw %struct.diff_options, ptr %35, i32 0, i32 51
  %37 = load ptr, ptr %36, align 8, !tbaa !81
  %38 = icmp ne ptr %37, null
  br i1 %38, label %39, label %80

39:                                               ; preds = %34
  %40 = load ptr, ptr %7, align 8, !tbaa !52
  %41 = getelementptr inbounds nuw %struct.diff_filepair, ptr %40, i32 0, i32 0
  %42 = load ptr, ptr %41, align 8, !tbaa !73
  %43 = getelementptr inbounds nuw %struct.diff_filespec, ptr %42, i32 0, i32 7
  %44 = load i16, ptr %43, align 8, !tbaa !77
  %45 = zext i16 %44 to i32
  %46 = icmp ne i32 %45, 0
  br i1 %46, label %47, label %57

47:                                               ; preds = %39
  %48 = load ptr, ptr %8, align 8, !tbaa !4
  %49 = getelementptr inbounds nuw %struct.diff_options, ptr %48, i32 0, i32 51
  %50 = load ptr, ptr %49, align 8, !tbaa !81
  %51 = load ptr, ptr %7, align 8, !tbaa !52
  %52 = getelementptr inbounds nuw %struct.diff_filepair, ptr %51, i32 0, i32 0
  %53 = load ptr, ptr %52, align 8, !tbaa !73
  %54 = getelementptr inbounds nuw %struct.diff_filespec, ptr %53, i32 0, i32 0
  %55 = call i32 @oidset_contains(ptr noundef %50, ptr noundef %54)
  %56 = icmp ne i32 %55, 0
  br i1 %56, label %77, label %57

57:                                               ; preds = %47, %39
  %58 = load ptr, ptr %7, align 8, !tbaa !52
  %59 = getelementptr inbounds nuw %struct.diff_filepair, ptr %58, i32 0, i32 1
  %60 = load ptr, ptr %59, align 8, !tbaa !80
  %61 = getelementptr inbounds nuw %struct.diff_filespec, ptr %60, i32 0, i32 7
  %62 = load i16, ptr %61, align 8, !tbaa !77
  %63 = zext i16 %62 to i32
  %64 = icmp ne i32 %63, 0
  br i1 %64, label %65, label %75

65:                                               ; preds = %57
  %66 = load ptr, ptr %8, align 8, !tbaa !4
  %67 = getelementptr inbounds nuw %struct.diff_options, ptr %66, i32 0, i32 51
  %68 = load ptr, ptr %67, align 8, !tbaa !81
  %69 = load ptr, ptr %7, align 8, !tbaa !52
  %70 = getelementptr inbounds nuw %struct.diff_filepair, ptr %69, i32 0, i32 1
  %71 = load ptr, ptr %70, align 8, !tbaa !80
  %72 = getelementptr inbounds nuw %struct.diff_filespec, ptr %71, i32 0, i32 0
  %73 = call i32 @oidset_contains(ptr noundef %68, ptr noundef %72)
  %74 = icmp ne i32 %73, 0
  br label %75

75:                                               ; preds = %65, %57
  %76 = phi i1 [ false, %57 ], [ %74, %65 ]
  br label %77

77:                                               ; preds = %75, %47
  %78 = phi i1 [ true, %47 ], [ %76, %75 ]
  %79 = zext i1 %78 to i32
  store i32 %79, ptr %6, align 4
  store i32 1, ptr %17, align 4
  br label %192

80:                                               ; preds = %34
  %81 = load ptr, ptr %8, align 8, !tbaa !4
  %82 = getelementptr inbounds nuw %struct.diff_options, ptr %81, i32 0, i32 13
  %83 = getelementptr inbounds nuw %struct.diff_flags, ptr %82, i32 0, i32 20
  %84 = load i32, ptr %83, align 8, !tbaa !82
  %85 = icmp ne i32 %84, 0
  br i1 %85, label %86, label %101

86:                                               ; preds = %80
  %87 = load ptr, ptr %8, align 8, !tbaa !4
  %88 = getelementptr inbounds nuw %struct.diff_options, ptr %87, i32 0, i32 71
  %89 = load ptr, ptr %88, align 8, !tbaa !83
  %90 = load ptr, ptr %7, align 8, !tbaa !52
  %91 = getelementptr inbounds nuw %struct.diff_filepair, ptr %90, i32 0, i32 0
  %92 = load ptr, ptr %91, align 8, !tbaa !73
  %93 = call ptr @get_textconv(ptr noundef %89, ptr noundef %92)
  store ptr %93, ptr %12, align 8, !tbaa !71
  %94 = load ptr, ptr %8, align 8, !tbaa !4
  %95 = getelementptr inbounds nuw %struct.diff_options, ptr %94, i32 0, i32 71
  %96 = load ptr, ptr %95, align 8, !tbaa !83
  %97 = load ptr, ptr %7, align 8, !tbaa !52
  %98 = getelementptr inbounds nuw %struct.diff_filepair, ptr %97, i32 0, i32 1
  %99 = load ptr, ptr %98, align 8, !tbaa !80
  %100 = call ptr @get_textconv(ptr noundef %96, ptr noundef %99)
  store ptr %100, ptr %13, align 8, !tbaa !71
  br label %101

101:                                              ; preds = %86, %80
  %102 = load ptr, ptr %12, align 8, !tbaa !71
  %103 = load ptr, ptr %13, align 8, !tbaa !71
  %104 = icmp eq ptr %102, %103
  br i1 %104, label %105, label %110

105:                                              ; preds = %101
  %106 = load ptr, ptr %7, align 8, !tbaa !52
  %107 = call i32 @diff_unmodified_pair(ptr noundef %106)
  %108 = icmp ne i32 %107, 0
  br i1 %108, label %109, label %110

109:                                              ; preds = %105
  store i32 0, ptr %6, align 4
  store i32 1, ptr %17, align 4
  br label %192

110:                                              ; preds = %105, %101
  %111 = load ptr, ptr %8, align 8, !tbaa !4
  %112 = getelementptr inbounds nuw %struct.diff_options, ptr %111, i32 0, i32 5
  %113 = load i32, ptr %112, align 8, !tbaa !25
  %114 = and i32 %113, 8
  %115 = icmp ne i32 %114, 0
  br i1 %115, label %116, label %147

116:                                              ; preds = %110
  %117 = load ptr, ptr %8, align 8, !tbaa !4
  %118 = getelementptr inbounds nuw %struct.diff_options, ptr %117, i32 0, i32 13
  %119 = getelementptr inbounds nuw %struct.diff_flags, ptr %118, i32 0, i32 3
  %120 = load i32, ptr %119, align 4, !tbaa !84
  %121 = icmp ne i32 %120, 0
  br i1 %121, label %147, label %122

122:                                              ; preds = %116
  %123 = load ptr, ptr %12, align 8, !tbaa !71
  %124 = icmp ne ptr %123, null
  br i1 %124, label %134, label %125

125:                                              ; preds = %122
  %126 = load ptr, ptr %8, align 8, !tbaa !4
  %127 = getelementptr inbounds nuw %struct.diff_options, ptr %126, i32 0, i32 71
  %128 = load ptr, ptr %127, align 8, !tbaa !83
  %129 = load ptr, ptr %7, align 8, !tbaa !52
  %130 = getelementptr inbounds nuw %struct.diff_filepair, ptr %129, i32 0, i32 0
  %131 = load ptr, ptr %130, align 8, !tbaa !73
  %132 = call i32 @diff_filespec_is_binary(ptr noundef %128, ptr noundef %131)
  %133 = icmp ne i32 %132, 0
  br i1 %133, label %146, label %134

134:                                              ; preds = %125, %122
  %135 = load ptr, ptr %13, align 8, !tbaa !71
  %136 = icmp ne ptr %135, null
  br i1 %136, label %147, label %137

137:                                              ; preds = %134
  %138 = load ptr, ptr %8, align 8, !tbaa !4
  %139 = getelementptr inbounds nuw %struct.diff_options, ptr %138, i32 0, i32 71
  %140 = load ptr, ptr %139, align 8, !tbaa !83
  %141 = load ptr, ptr %7, align 8, !tbaa !52
  %142 = getelementptr inbounds nuw %struct.diff_filepair, ptr %141, i32 0, i32 1
  %143 = load ptr, ptr %142, align 8, !tbaa !80
  %144 = call i32 @diff_filespec_is_binary(ptr noundef %140, ptr noundef %143)
  %145 = icmp ne i32 %144, 0
  br i1 %145, label %146, label %147

146:                                              ; preds = %137, %125
  store i32 0, ptr %6, align 4
  store i32 1, ptr %17, align 4
  br label %192

147:                                              ; preds = %137, %134, %116, %110
  %148 = load ptr, ptr %8, align 8, !tbaa !4
  %149 = getelementptr inbounds nuw %struct.diff_options, ptr %148, i32 0, i32 71
  %150 = load ptr, ptr %149, align 8, !tbaa !83
  %151 = load ptr, ptr %12, align 8, !tbaa !71
  %152 = load ptr, ptr %7, align 8, !tbaa !52
  %153 = getelementptr inbounds nuw %struct.diff_filepair, ptr %152, i32 0, i32 0
  %154 = load ptr, ptr %153, align 8, !tbaa !73
  %155 = getelementptr inbounds nuw %struct.s_mmfile, ptr %14, i32 0, i32 0
  %156 = call i64 @fill_textconv(ptr noundef %150, ptr noundef %151, ptr noundef %154, ptr noundef %155)
  %157 = getelementptr inbounds nuw %struct.s_mmfile, ptr %14, i32 0, i32 1
  store i64 %156, ptr %157, align 8, !tbaa !66
  %158 = load ptr, ptr %8, align 8, !tbaa !4
  %159 = getelementptr inbounds nuw %struct.diff_options, ptr %158, i32 0, i32 71
  %160 = load ptr, ptr %159, align 8, !tbaa !83
  %161 = load ptr, ptr %13, align 8, !tbaa !71
  %162 = load ptr, ptr %7, align 8, !tbaa !52
  %163 = getelementptr inbounds nuw %struct.diff_filepair, ptr %162, i32 0, i32 1
  %164 = load ptr, ptr %163, align 8, !tbaa !80
  %165 = getelementptr inbounds nuw %struct.s_mmfile, ptr %15, i32 0, i32 0
  %166 = call i64 @fill_textconv(ptr noundef %160, ptr noundef %161, ptr noundef %164, ptr noundef %165)
  %167 = getelementptr inbounds nuw %struct.s_mmfile, ptr %15, i32 0, i32 1
  store i64 %166, ptr %167, align 8, !tbaa !66
  %168 = load ptr, ptr %11, align 8, !tbaa !32
  %169 = load ptr, ptr %8, align 8, !tbaa !4
  %170 = load ptr, ptr %9, align 8, !tbaa !27
  %171 = load ptr, ptr %10, align 8, !tbaa !29
  %172 = call i32 %168(ptr noundef %14, ptr noundef %15, ptr noundef %169, ptr noundef %170, ptr noundef %171)
  store i32 %172, ptr %16, align 4, !tbaa !26
  %173 = load ptr, ptr %12, align 8, !tbaa !71
  %174 = icmp ne ptr %173, null
  br i1 %174, label %175, label %178

175:                                              ; preds = %147
  %176 = getelementptr inbounds nuw %struct.s_mmfile, ptr %14, i32 0, i32 0
  %177 = load ptr, ptr %176, align 8, !tbaa !68
  call void @free(ptr noundef %177) #9
  br label %178

178:                                              ; preds = %175, %147
  %179 = load ptr, ptr %13, align 8, !tbaa !71
  %180 = icmp ne ptr %179, null
  br i1 %180, label %181, label %184

181:                                              ; preds = %178
  %182 = getelementptr inbounds nuw %struct.s_mmfile, ptr %15, i32 0, i32 0
  %183 = load ptr, ptr %182, align 8, !tbaa !68
  call void @free(ptr noundef %183) #9
  br label %184

184:                                              ; preds = %181, %178
  %185 = load ptr, ptr %7, align 8, !tbaa !52
  %186 = getelementptr inbounds nuw %struct.diff_filepair, ptr %185, i32 0, i32 0
  %187 = load ptr, ptr %186, align 8, !tbaa !73
  call void @diff_free_filespec_data(ptr noundef %187)
  %188 = load ptr, ptr %7, align 8, !tbaa !52
  %189 = getelementptr inbounds nuw %struct.diff_filepair, ptr %188, i32 0, i32 1
  %190 = load ptr, ptr %189, align 8, !tbaa !80
  call void @diff_free_filespec_data(ptr noundef %190)
  %191 = load i32, ptr %16, align 4, !tbaa !26
  store i32 %191, ptr %6, align 4
  store i32 1, ptr %17, align 4
  br label %192

192:                                              ; preds = %184, %146, %109, %77, %33
  call void @llvm.lifetime.end.p0(i64 4, ptr %16) #9
  call void @llvm.lifetime.end.p0(i64 16, ptr %15) #9
  call void @llvm.lifetime.end.p0(i64 16, ptr %14) #9
  call void @llvm.lifetime.end.p0(i64 8, ptr %13) #9
  call void @llvm.lifetime.end.p0(i64 8, ptr %12) #9
  %193 = load i32, ptr %6, align 4
  ret i32 %193
}