; Function Attrs: nounwind uwtable
define internal fastcc i32 @pickaxe_match(ptr noundef %0, ptr noundef %1, ptr noundef %2, ptr noundef %3, ptr noundef readonly captures(none) %4) unnamed_addr #0 {
  %6 = alloca %struct.s_mmfile, align 8
  %7 = alloca %struct.s_mmfile, align 8
  call void @llvm.lifetime.start.p0(i64 16, ptr nonnull %6) #8
  call void @llvm.lifetime.start.p0(i64 16, ptr nonnull %7) #8
  %8 = load ptr, ptr %0, align 8, !tbaa !57
  %9 = getelementptr inbounds nuw i8, ptr %8, i64 80
  %10 = load i16, ptr %9, align 8, !tbaa !61
  %.not = icmp eq i16 %10, 0
  br i1 %.not, label %11, label %.thread

11:                                               ; preds = %5
  %12 = getelementptr inbounds nuw i8, ptr %0, i64 8
  %13 = load ptr, ptr %12, align 8, !tbaa !65
  %14 = getelementptr inbounds nuw i8, ptr %13, i64 80
  %15 = load i16, ptr %14, align 8, !tbaa !61
  %.not43 = icmp eq i16 %15, 0
  br i1 %.not43, label %84, label %16

16:                                               ; preds = %11
  %17 = getelementptr inbounds nuw i8, ptr %1, i64 416
  %18 = load ptr, ptr %17, align 8, !tbaa !66
  %.not44 = icmp eq ptr %18, null
  br i1 %.not44, label %31, label %.thread69

.thread:                                          ; preds = %5
  %19 = getelementptr inbounds nuw i8, ptr %1, i64 416
  %20 = load ptr, ptr %19, align 8, !tbaa !66
  %.not4458 = icmp eq ptr %20, null
  br i1 %.not4458, label %31, label %21

21:                                               ; preds = %.thread
  %22 = tail call i32 @oidset_contains(ptr noundef nonnull %20, ptr noundef nonnull %8) #8
  %.not56 = icmp eq i32 %22, 0
  br i1 %.not56, label %23, label %84

23:                                               ; preds = %21
  %.phi.trans.insert = getelementptr inbounds nuw i8, ptr %0, i64 8
  %.pre = load ptr, ptr %.phi.trans.insert, align 8, !tbaa !65
  %.phi.trans.insert67 = getelementptr inbounds nuw i8, ptr %.pre, i64 80
  %.pre68 = load i16, ptr %.phi.trans.insert67, align 8, !tbaa !61
  %24 = icmp eq i16 %.pre68, 0
  br i1 %24, label %84, label %.thread69

.thread69:                                        ; preds = %16, %23
  %25 = phi ptr [ %19, %23 ], [ %17, %16 ]
  %26 = phi ptr [ %.pre, %23 ], [ %13, %16 ]
  %27 = load ptr, ptr %25, align 8, !tbaa !66
  %28 = tail call i32 @oidset_contains(ptr noundef %27, ptr noundef nonnull %26) #8
  %29 = icmp ne i32 %28, 0
  %30 = zext i1 %29 to i32
  br label %84

31:                                               ; preds = %.thread, %16
  %32 = getelementptr inbounds nuw i8, ptr %1, i64 176
  %33 = load i32, ptr %32, align 8, !tbaa !67
  %.not45 = icmp eq i32 %33, 0
  br i1 %.not45, label %.thread60, label %34

34:                                               ; preds = %31
  %35 = getelementptr inbounds nuw i8, ptr %1, i64 568
  %36 = load ptr, ptr %35, align 8, !tbaa !68
  %37 = tail call ptr @get_textconv(ptr noundef %36, ptr noundef nonnull %8) #8
  %38 = load ptr, ptr %35, align 8, !tbaa !68
  %39 = getelementptr inbounds nuw i8, ptr %0, i64 8
  %40 = load ptr, ptr %39, align 8, !tbaa !65
  %41 = tail call ptr @get_textconv(ptr noundef %38, ptr noundef %40) #8
  %42 = icmp eq ptr %37, %41
  br i1 %42, label %.thread60, label %44

.thread60:                                        ; preds = %31, %34
  %.04066 = phi ptr [ %41, %34 ], [ null, %31 ]
  %.04164 = phi ptr [ %37, %34 ], [ null, %31 ]
  %43 = tail call i32 @diff_unmodified_pair(ptr noundef nonnull %0) #8
  %.not46 = icmp eq i32 %43, 0
  br i1 %.not46, label %44, label %84

44:                                               ; preds = %.thread60, %34
  %.04065 = phi ptr [ %.04066, %.thread60 ], [ %41, %34 ]
  %.04163 = phi ptr [ %.04164, %.thread60 ], [ %37, %34 ]
  %45 = getelementptr inbounds nuw i8, ptr %1, i64 32
  %46 = load i32, ptr %45, align 8, !tbaa !22
  %47 = and i32 %46, 8
  %.not47 = icmp eq i32 %47, 0
  br i1 %.not47, label %64, label %48

48:                                               ; preds = %44
  %49 = getelementptr inbounds nuw i8, ptr %1, i64 108
  %50 = load i32, ptr %49, align 4, !tbaa !69
  %.not48 = icmp eq i32 %50, 0
  br i1 %.not48, label %51, label %64

51:                                               ; preds = %48
  %.not49 = icmp eq ptr %.04163, null
  br i1 %.not49, label %52, label %57

52:                                               ; preds = %51
  %53 = getelementptr inbounds nuw i8, ptr %1, i64 568
  %54 = load ptr, ptr %53, align 8, !tbaa !68
  %55 = load ptr, ptr %0, align 8, !tbaa !57
  %56 = tail call i32 @diff_filespec_is_binary(ptr noundef %54, ptr noundef %55) #8
  %.not50 = icmp eq i32 %56, 0
  br i1 %.not50, label %57, label %84

57:                                               ; preds = %52, %51
  %.not51 = icmp eq ptr %.04065, null
  br i1 %.not51, label %58, label %64

58:                                               ; preds = %57
  %59 = getelementptr inbounds nuw i8, ptr %1, i64 568
  %60 = load ptr, ptr %59, align 8, !tbaa !68
  %61 = getelementptr inbounds nuw i8, ptr %0, i64 8
  %62 = load ptr, ptr %61, align 8, !tbaa !65
  %63 = tail call i32 @diff_filespec_is_binary(ptr noundef %60, ptr noundef %62) #8
  %.not52 = icmp eq i32 %63, 0
  br i1 %.not52, label %64, label %84

64:                                               ; preds = %58, %57, %48, %44
  %65 = getelementptr inbounds nuw i8, ptr %1, i64 568
  %66 = load ptr, ptr %65, align 8, !tbaa !68
  %67 = load ptr, ptr %0, align 8, !tbaa !57
  %68 = call i64 @fill_textconv(ptr noundef %66, ptr noundef %.04163, ptr noundef %67, ptr noundef nonnull %6) #8
  %69 = getelementptr inbounds nuw i8, ptr %6, i64 8
  store i64 %68, ptr %69, align 8, !tbaa !51
  %70 = load ptr, ptr %65, align 8, !tbaa !68
  %71 = getelementptr inbounds nuw i8, ptr %0, i64 8
  %72 = load ptr, ptr %71, align 8, !tbaa !65
  %73 = call i64 @fill_textconv(ptr noundef %70, ptr noundef %.04065, ptr noundef %72, ptr noundef nonnull %7) #8
  %74 = getelementptr inbounds nuw i8, ptr %7, i64 8
  store i64 %73, ptr %74, align 8, !tbaa !51
  %75 = call i32 %4(ptr noundef nonnull %6, ptr noundef nonnull %7, ptr noundef nonnull %1, ptr noundef %2, ptr noundef %3) #8, !callees !70
  %.not53 = icmp eq ptr %.04163, null
  br i1 %.not53, label %78, label %76

76:                                               ; preds = %64
  %77 = load ptr, ptr %6, align 8, !tbaa !49
  call void @free(ptr noundef %77) #8
  br label %78

78:                                               ; preds = %76, %64
  %.not54 = icmp eq ptr %.04065, null
  br i1 %.not54, label %81, label %79

79:                                               ; preds = %78
  %80 = load ptr, ptr %7, align 8, !tbaa !49
  call void @free(ptr noundef %80) #8
  br label %81

81:                                               ; preds = %79, %78
  %82 = load ptr, ptr %0, align 8, !tbaa !57
  call void @diff_free_filespec_data(ptr noundef %82) #8
  %83 = load ptr, ptr %71, align 8, !tbaa !65
  call void @diff_free_filespec_data(ptr noundef %83) #8
  br label %84

84:                                               ; preds = %52, %58, %.thread60, %21, %.thread69, %23, %11, %81
  %.0 = phi i32 [ %75, %81 ], [ 0, %11 ], [ 1, %21 ], [ 0, %23 ], [ %30, %.thread69 ], [ 0, %.thread60 ], [ 0, %58 ], [ 0, %52 ]
  call void @llvm.lifetime.end.p0(i64 16, ptr nonnull %7) #8
  call void @llvm.lifetime.end.p0(i64 16, ptr nonnull %6) #8
  ret i32 %.0
}